; Function Attrs: mustprogress uwtable
define noundef signext i8 @usearch_handleNextCanonical_75(ptr noundef %strsrch, ptr noundef %status) local_unnamed_addr #0 {
entry:
  %localStatus.i9 = alloca i32, align 4
  %localStatus.i = alloca i32, align 4
  %start = alloca i32, align 4
  %end = alloca i32, align 4
  %0 = load i32, ptr %status, align 4
  %cmp.i = icmp slt i32 %0, 1
  br i1 %cmp.i, label %if.end, label %if.then

if.then:                                          ; preds = %entry
  call void @llvm.lifetime.start.p0(i64 4, ptr nonnull %localStatus.i)
  store i32 0, ptr %localStatus.i, align 4
  %1 = load ptr, ptr %strsrch, align 8
  %matchedIndex.i = getelementptr inbounds i8, ptr %1, i64 32
  store i32 -1, ptr %matchedIndex.i, align 8
  %2 = load ptr, ptr %strsrch, align 8
  %matchedLength.i = getelementptr inbounds i8, ptr %2, i64 36
  store i32 0, ptr %matchedLength.i, align 4
  %3 = load ptr, ptr %strsrch, align 8
  %isForwardSearching.i = getelementptr inbounds i8, ptr %3, i64 40
  %4 = load i8, ptr %isForwardSearching.i, align 8
  %tobool.not.i = icmp eq i8 %4, 0
  %textIter4.i = getelementptr inbounds i8, ptr %strsrch, i64 3144
  %5 = load ptr, ptr %textIter4.i, align 8
  br i1 %tobool.not.i, label %if.end.i, label %if.then.i

if.then.i:                                        ; preds = %if.then
  %textLength.i = getelementptr inbounds i8, ptr %3, i64 8
  %6 = load i32, ptr %textLength.i, align 8
  br label %if.end.i

if.end.i:                                         ; preds = %if.then.i, %if.then
  %.sink.i = phi i32 [ %6, %if.then.i ], [ 0, %if.then ]
  call void @ucol_setOffset_75(ptr noundef %5, i32 noundef %.sink.i, ptr noundef nonnull %localStatus.i)
  %7 = load i32, ptr %status, align 4
  %cmp.i.i = icmp sgt i32 %7, 0
  br i1 %cmp.i.i, label %_ZL16setMatchNotFoundP13UStringSearchR10UErrorCode.exit, label %land.lhs.true.i

land.lhs.true.i:                                  ; preds = %if.end.i
  %8 = load i32, ptr %localStatus.i, align 4
  %cmp.i7.i = icmp slt i32 %8, 1
  br i1 %cmp.i7.i, label %_ZL16setMatchNotFoundP13UStringSearchR10UErrorCode.exit, label %if.then8.i

if.then8.i:                                       ; preds = %land.lhs.true.i
  store i32 %8, ptr %status, align 4
  br label %_ZL16setMatchNotFoundP13UStringSearchR10UErrorCode.exit

_ZL16setMatchNotFoundP13UStringSearchR10UErrorCode.exit: ; preds = %if.end.i, %land.lhs.true.i, %if.then8.i
  call void @llvm.lifetime.end.p0(i64 4, ptr nonnull %localStatus.i)
  br label %return

if.end:                                           ; preds = %entry
  %textIter = getelementptr inbounds i8, ptr %strsrch, i64 3144
  %9 = load ptr, ptr %textIter, align 8
  %call1 = tail call i32 @ucol_getOffset_75(ptr noundef %9)
  store i32 -1, ptr %start, align 4
  store i32 -1, ptr %end, align 4
  %call2 = call signext i8 @usearch_search_75(ptr noundef %strsrch, i32 noundef %call1, ptr noundef nonnull %start, ptr noundef nonnull %end, ptr noundef nonnull %status), !range !6
  %tobool3.not = icmp eq i8 %call2, 0
  br i1 %tobool3.not, label %if.else, label %if.then4

if.then4:                                         ; preds = %if.end
  %10 = load i32, ptr %start, align 4
  %11 = load ptr, ptr %strsrch, align 8
  %matchedIndex = getelementptr inbounds i8, ptr %11, i64 32
  store i32 %10, ptr %matchedIndex, align 8
  %12 = load i32, ptr %end, align 4
  %sub = sub nsw i32 %12, %10
  %13 = load ptr, ptr %strsrch, align 8
  %matchedLength = getelementptr inbounds i8, ptr %13, i64 36
  store i32 %sub, ptr %matchedLength, align 4
  br label %return

if.else:                                          ; preds = %if.end
  call void @llvm.lifetime.start.p0(i64 4, ptr nonnull %localStatus.i9)
  store i32 0, ptr %localStatus.i9, align 4
  %14 = load ptr, ptr %strsrch, align 8
  %matchedIndex.i10 = getelementptr inbounds i8, ptr %14, i64 32
  store i32 -1, ptr %matchedIndex.i10, align 8
  %15 = load ptr, ptr %strsrch, align 8
  %matchedLength.i11 = getelementptr inbounds i8, ptr %15, i64 36
  store i32 0, ptr %matchedLength.i11, align 4
  %16 = load ptr, ptr %strsrch, align 8
  %isForwardSearching.i12 = getelementptr inbounds i8, ptr %16, i64 40
  %17 = load i8, ptr %isForwardSearching.i12, align 8
  %tobool.not.i13 = icmp eq i8 %17, 0
  %18 = load ptr, ptr %textIter, align 8
  br i1 %tobool.not.i13, label %if.end.i17, label %if.then.i15

if.then.i15:                                      ; preds = %if.else
  %textLength.i16 = getelementptr inbounds i8, ptr %16, i64 8
  %19 = load i32, ptr %textLength.i16, align 8
  br label %if.end.i17

if.end.i17:                                       ; preds = %if.then.i15, %if.else
  %.sink.i18 = phi i32 [ %19, %if.then.i15 ], [ 0, %if.else ]
  call void @ucol_setOffset_75(ptr noundef %18, i32 noundef %.sink.i18, ptr noundef nonnull %localStatus.i9)
  %20 = load i32, ptr %status, align 4
  %cmp.i.i19 = icmp sgt i32 %20, 0
  br i1 %cmp.i.i19, label %_ZL16setMatchNotFoundP13UStringSearchR10UErrorCode.exit23, label %land.lhs.true.i20

land.lhs.true.i20:                                ; preds = %if.end.i17
  %21 = load i32, ptr %localStatus.i9, align 4
  %cmp.i7.i21 = icmp slt i32 %21, 1
  br i1 %cmp.i7.i21, label %_ZL16setMatchNotFoundP13UStringSearchR10UErrorCode.exit23, label %if.then8.i22

if.then8.i22:                                     ; preds = %land.lhs.true.i20
  store i32 %21, ptr %status, align 4
  br label %_ZL16setMatchNotFoundP13UStringSearchR10UErrorCode.exit23

_ZL16setMatchNotFoundP13UStringSearchR10UErrorCode.exit23: ; preds = %if.end.i17, %land.lhs.true.i20, %if.then8.i22
  call void @llvm.lifetime.end.p0(i64 4, ptr nonnull %localStatus.i9)
  br label %return

return:                                           ; preds = %_ZL16setMatchNotFoundP13UStringSearchR10UErrorCode.exit23, %if.then4, %_ZL16setMatchNotFoundP13UStringSearchR10UErrorCode.exit
  %retval.0 = phi i8 [ 0, %_ZL16setMatchNotFoundP13UStringSearchR10UErrorCode.exit ], [ 1, %if.then4 ], [ 0, %_ZL16setMatchNotFoundP13UStringSearchR10UErrorCode.exit23 ]
  ret i8 %retval.0
}